target datalayout = "e-m:e-p270:32:32-p271:32:32-p272:64:64-i64:64-i128:128-f80:128-n8:16:32:64-S128"
target triple = "x86_64-pc-linux-gnu"

%struct.slurm_opt_t = type { ptr, ptr, ptr, ptr, ptr, ptr, ptr, ptr, i32, ptr, ptr, ptr, ptr, i32, i32, ptr, i32, i8, i8, i32, i8, i32, i32, ptr, i8, i32, i32, i64, i32, i32, i32, i32, i32, i32, ptr, i32, ptr, i8, i32, i32, ptr, i32, i32, i32, ptr, ptr, i32, i32, ptr, ptr, ptr, i32, i16, i16, i16, i8, i8, ptr, i8, i16, ptr, ptr, i32, i32, i32, ptr, ptr, ptr, ptr, ptr, ptr, i32, i64, i64, i64, i16, i64, ptr, ptr, ptr, ptr, ptr, ptr, ptr, i8, ptr, ptr, ptr, ptr, i8, i64, ptr, i16, ptr, i32, i32, ptr, ptr, i32, i32, i32, ptr, i32, i32, i32, i32, i32, ptr, i64, i32, i16, i32, ptr, ptr, ptr, ptr, ptr, i16, ptr, ptr, i16, i8, ptr, ptr, ptr, ptr }
%struct.srun_opt_t = type { i16, ptr, ptr, ptr, i8, ptr, i16, i8, ptr, i32, i8, i8, i8, ptr, i8, i8, i8, i32, i32, i32, i8, i32, i32, i32, ptr, i8, i32, i8, i8, ptr, ptr, i32, i8, i8, ptr, ptr, ptr, i8, i32, i8, i32, ptr, ptr, i8, i8, i16, i8, i8 }

; Function Attrs: nounwind uwtable
define internal i32 @_sort_by_offset(ptr noundef %0, ptr noundef %1) #0 {
  %3 = alloca i32, align 4
  %4 = alloca ptr, align 8
  %5 = alloca ptr, align 8
  %6 = alloca ptr, align 8
  %7 = alloca ptr, align 8
  %8 = alloca i32, align 4
  %9 = alloca i32, align 4
  %10 = alloca i32, align 4
  store ptr %0, ptr %4, align 8
  store ptr %1, ptr %5, align 8
  call void @llvm.lifetime.start.p0(i64 8, ptr %6) #10
  %11 = load ptr, ptr %4, align 8
  %12 = load ptr, ptr %11, align 8
  store ptr %12, ptr %6, align 8
  call void @llvm.lifetime.start.p0(i64 8, ptr %7) #10
  %13 = load ptr, ptr %5, align 8
  %14 = load ptr, ptr %13, align 8
  store ptr %14, ptr %7, align 8
  call void @llvm.lifetime.start.p0(i64 4, ptr %8) #10
  store i32 -1, ptr %8, align 4
  call void @llvm.lifetime.start.p0(i64 4, ptr %9) #10
  store i32 -1, ptr %9, align 4
  %15 = load ptr, ptr %6, align 8
  %16 = getelementptr inbounds nuw %struct.slurm_opt_t, ptr %15, i32 0, i32 3
  %17 = load ptr, ptr %16, align 8
  %18 = getelementptr inbounds nuw %struct.srun_opt_t, ptr %17, i32 0, i32 30
  %19 = load ptr, ptr %18, align 8
  %20 = icmp ne ptr %19, null
  br i1 %20, label %21, label %29

21:                                               ; preds = %2
  %22 = load ptr, ptr %6, align 8
  %23 = getelementptr inbounds nuw %struct.slurm_opt_t, ptr %22, i32 0, i32 3
  %24 = load ptr, ptr %23, align 8
  %25 = getelementptr inbounds nuw %struct.srun_opt_t, ptr %24, i32 0, i32 30
  %26 = load ptr, ptr %25, align 8
  %27 = call i64 @bit_ffs(ptr noundef %26)
  %28 = trunc i64 %27 to i32
  store i32 %28, ptr %8, align 4
  br label %29

29:                                               ; preds = %21, %2
  %30 = load ptr, ptr %7, align 8
  %31 = getelementptr inbounds nuw %struct.slurm_opt_t, ptr %30, i32 0, i32 3
  %32 = load ptr, ptr %31, align 8
  %33 = getelementptr inbounds nuw %struct.srun_opt_t, ptr %32, i32 0, i32 30
  %34 = load ptr, ptr %33, align 8
  %35 = icmp ne ptr %34, null
  br i1 %35, label %36, label %44

36:                                               ; preds = %29
  %37 = load ptr, ptr %7, align 8
  %38 = getelementptr inbounds nuw %struct.slurm_opt_t, ptr %37, i32 0, i32 3
  %39 = load ptr, ptr %38, align 8
  %40 = getelementptr inbounds nuw %struct.srun_opt_t, ptr %39, i32 0, i32 30
  %41 = load ptr, ptr %40, align 8
  %42 = call i64 @bit_ffs(ptr noundef %41)
  %43 = trunc i64 %42 to i32
  store i32 %43, ptr %9, align 4
  br label %44

44:                                               ; preds = %36, %29
  %45 = load i32, ptr %8, align 4
  %46 = load i32, ptr %9, align 4
  %47 = icmp slt i32 %45, %46
  br i1 %47, label %48, label %49

48:                                               ; preds = %44
  store i32 -1, ptr %3, align 4
  store i32 1, ptr %10, align 4
  br label %55

49:                                               ; preds = %44
  %50 = load i32, ptr %8, align 4
  %51 = load i32, ptr %9, align 4
  %52 = icmp sgt i32 %50, %51
  br i1 %52, label %53, label %54

53:                                               ; preds = %49
  store i32 1, ptr %3, align 4
  store i32 1, ptr %10, align 4
  br label %55

54:                                               ; preds = %49
  store i32 0, ptr %3, align 4
  store i32 1, ptr %10, align 4
  br label %55

55:                                               ; preds = %54, %53, %48
  call void @llvm.lifetime.end.p0(i64 4, ptr %9) #10
  call void @llvm.lifetime.end.p0(i64 4, ptr %8) #10
  call void @llvm.lifetime.end.p0(i64 8, ptr %7) #10
  call void @llvm.lifetime.end.p0(i64 8, ptr %6) #10
  %56 = load i32, ptr %3, align 4
  ret i32 %56
}