; Function Attrs: nounwind uwtable
define internal range(i32 -1, 2) i32 @_sort_by_offset(ptr noundef readonly captures(none) %0, ptr noundef readonly captures(none) %1) #0 {
  %3 = load ptr, ptr %0, align 8
  %4 = load ptr, ptr %1, align 8
  %5 = getelementptr inbounds nuw i8, ptr %3, i64 24
  %6 = load ptr, ptr %5, align 8
  %7 = getelementptr inbounds nuw i8, ptr %6, i64 144
  %8 = load ptr, ptr %7, align 8
  %.not = icmp eq ptr %8, null
  br i1 %.not, label %12, label %9

9:                                                ; preds = %2
  %10 = tail call i64 @bit_ffs(ptr noundef nonnull %8) #15
  %11 = trunc i64 %10 to i32
  br label %12

12:                                               ; preds = %9, %2
  %.010 = phi i32 [ %11, %9 ], [ -1, %2 ]
  %13 = getelementptr inbounds nuw i8, ptr %4, i64 24
  %14 = load ptr, ptr %13, align 8
  %15 = getelementptr inbounds nuw i8, ptr %14, i64 144
  %16 = load ptr, ptr %15, align 8
  %.not14 = icmp eq ptr %16, null
  br i1 %.not14, label %20, label %17

17:                                               ; preds = %12
  %18 = tail call i64 @bit_ffs(ptr noundef nonnull %16) #15
  %19 = trunc i64 %18 to i32
  br label %20

20:                                               ; preds = %17, %12
  %.0 = phi i32 [ %19, %17 ], [ -1, %12 ]
  %.011 = tail call i32 @llvm.scmp.i32.i32(i32 %.010, i32 %.0)
  ret i32 %.011
}